; Function Attrs: mustprogress uwtable
define internal noundef i64 @_ZN11OpenImageIO6v3_1_0L18oiio_exr_read_funcEPK19_priv_exr_context_tPvS4_mmPFiS3_iPKczE(ptr noundef %0, ptr noundef readonly %1, ptr noundef %2, i64 noundef %3, i64 noundef %4, ptr noundef readonly captures(none) %5) #5 personality ptr @__gxx_personality_v0 {
  %7 = alloca %"class.std::__cxx11::basic_string", align 8
  %.not = icmp eq ptr %1, null
  br i1 %.not, label %41, label %8

8:                                                ; preds = %6
  %9 = getelementptr inbounds nuw i8, ptr %1, i64 8
  %10 = load ptr, ptr %9, align 8, !tbaa !90
  %.not19 = icmp eq ptr %10, null
  br i1 %.not19, label %41, label %11

11:                                               ; preds = %8
  %12 = load ptr, ptr %10, align 8, !tbaa !3
  %13 = getelementptr inbounds nuw i8, ptr %12, i64 72
  %14 = load ptr, ptr %13, align 8
  %15 = tail call noundef i64 %14(ptr noundef nonnull align 8 dereferenceable(88) %10, ptr noundef %2, i64 noundef %3, i64 noundef %4)
  %.not20 = icmp eq i64 %15, -1
  br i1 %.not20, label %16, label %41

16:                                               ; preds = %11
  call void @llvm.lifetime.start.p0(i64 32, ptr nonnull %7) #27
  call void @_ZNK11OpenImageIO6v3_1_010Filesystem7IOProxy5errorB5cxx11Ev(ptr dead_on_unwind nonnull writable sret(%"class.std::__cxx11::basic_string") align 8 %7, ptr noundef nonnull align 8 dereferenceable(88) %10)
  %17 = getelementptr inbounds nuw i8, ptr %10, i64 8
  %18 = load ptr, ptr %17, align 8, !tbaa !65
  %19 = getelementptr inbounds nuw i8, ptr %7, i64 8
  %20 = load i64, ptr %19, align 8, !tbaa !68
  %21 = icmp eq i64 %20, 0
  %22 = load ptr, ptr %7, align 8
  %spec.select = select i1 %21, ptr @.str.142, ptr %22
  %23 = invoke noundef i32 (ptr, i32, ptr, ...) %5(ptr noundef %0, i32 noundef 10, ptr noundef nonnull @.str.141, ptr noundef %18, ptr noundef %spec.select)
          to label %24 unwind label %32

24:                                               ; preds = %16
  %25 = load ptr, ptr %7, align 8, !tbaa !65
  %26 = getelementptr inbounds nuw i8, ptr %7, i64 16
  %27 = icmp eq ptr %25, %26
  br i1 %27, label %_ZNKSt7__cxx1112basic_stringIcSt11char_traitsIcESaIcEE11_M_is_localEv.exit.thread.i.i, label %_ZNKSt7__cxx1112basic_stringIcSt11char_traitsIcESaIcEE11_M_is_localEv.exit.i.i

_ZNKSt7__cxx1112basic_stringIcSt11char_traitsIcESaIcEE11_M_is_localEv.exit.thread.i.i: ; preds = %24
  %28 = load i64, ptr %19, align 8, !tbaa !68
  %29 = icmp ult i64 %28, 16
  call void @llvm.assume(i1 %29)
  br label %_ZNSt7__cxx1112basic_stringIcSt11char_traitsIcESaIcEED2Ev.exit

_ZNKSt7__cxx1112basic_stringIcSt11char_traitsIcESaIcEE11_M_is_localEv.exit.i.i: ; preds = %24
  %30 = load i64, ptr %26, align 8, !tbaa !67
  %31 = add i64 %30, 1
  call void @_ZdlPvm(ptr noundef %25, i64 noundef %31) #28
  br label %_ZNSt7__cxx1112basic_stringIcSt11char_traitsIcESaIcEED2Ev.exit

_ZNSt7__cxx1112basic_stringIcSt11char_traitsIcESaIcEED2Ev.exit: ; preds = %_ZNKSt7__cxx1112basic_stringIcSt11char_traitsIcESaIcEE11_M_is_localEv.exit.thread.i.i, %_ZNKSt7__cxx1112basic_stringIcSt11char_traitsIcESaIcEE11_M_is_localEv.exit.i.i
  call void @llvm.lifetime.end.p0(i64 32, ptr nonnull %7) #27
  br label %41

32:                                               ; preds = %16
  %33 = landingpad { ptr, i32 }
          cleanup
  %34 = load ptr, ptr %7, align 8, !tbaa !65
  %35 = getelementptr inbounds nuw i8, ptr %7, i64 16
  %36 = icmp eq ptr %34, %35
  br i1 %36, label %_ZNKSt7__cxx1112basic_stringIcSt11char_traitsIcESaIcEE11_M_is_localEv.exit.thread.i.i22, label %_ZNKSt7__cxx1112basic_stringIcSt11char_traitsIcESaIcEE11_M_is_localEv.exit.i.i21

_ZNKSt7__cxx1112basic_stringIcSt11char_traitsIcESaIcEE11_M_is_localEv.exit.thread.i.i22: ; preds = %32
  %37 = load i64, ptr %19, align 8, !tbaa !68
  %38 = icmp ult i64 %37, 16
  call void @llvm.assume(i1 %38)
  br label %_ZNSt7__cxx1112basic_stringIcSt11char_traitsIcESaIcEED2Ev.exit23

_ZNKSt7__cxx1112basic_stringIcSt11char_traitsIcESaIcEE11_M_is_localEv.exit.i.i21: ; preds = %32
  %39 = load i64, ptr %35, align 8, !tbaa !67
  %40 = add i64 %39, 1
  call void @_ZdlPvm(ptr noundef %34, i64 noundef %40) #28
  br label %_ZNSt7__cxx1112basic_stringIcSt11char_traitsIcESaIcEED2Ev.exit23

_ZNSt7__cxx1112basic_stringIcSt11char_traitsIcESaIcEED2Ev.exit23: ; preds = %_ZNKSt7__cxx1112basic_stringIcSt11char_traitsIcESaIcEE11_M_is_localEv.exit.thread.i.i22, %_ZNKSt7__cxx1112basic_stringIcSt11char_traitsIcESaIcEE11_M_is_localEv.exit.i.i21
  call void @llvm.lifetime.end.p0(i64 32, ptr nonnull %7) #27
  resume { ptr, i32 } %33

41:                                               ; preds = %8, %11, %_ZNSt7__cxx1112basic_stringIcSt11char_traitsIcESaIcEED2Ev.exit, %6
  %.0 = phi i64 [ -1, %6 ], [ -1, %8 ], [ -1, %_ZNSt7__cxx1112basic_stringIcSt11char_traitsIcESaIcEED2Ev.exit ], [ %15, %11 ]
  ret i64 %.0
}